(lp0
(V\u000a\ub450 \uac1c\uc758 \uc5f0\uc560 (\uc0c1\uc601\uc911) (Two.Rooms_Two.Nights, \uba5c\ub85c/\ub85c\ub9e8\uc2a4, \ucf54\ubbf8\ub514, 2015) \uc601\ud654 \ub2e4\uc2dc\ubcf4\uae30 \ud1a0\ub80c\ud2b8\u000a
p1
S'http://koreanz.com.au/wp-content/uploads/kboard_attached/219/201604/5717ee6fd6cee2266313-270x177.jpg'
p2
S'http://koreanz.com.au/wp-content/uploads/kboard_attached/219/201604/5717ee6fd6cee2266313.jpg'
p3
S'<iframe allowfullscreen="" frameborder="0" height="430" scrolling="no" src="http://videomega.tv/view.php?ref=065100048104111072057117056081081056117057072111104048100065&amp;width=728&amp;height=430" width="728"></iframe>'
p4
tp5
a(V\u000a\ub3d9\uc8fc (DONGJU_The Portrait of A Poet, \ub4dc\ub77c\ub9c8, \ud55c\uad6d, 2015) \uc601\ud654 \ub2e4\uc2dc\ubcf4\uae30 \ud1a0\ub80c\ud2b8\u000a
p6
S'http://koreanz.com.au/wp-content/uploads/kboard_attached/219/201604/5715891d3bcf15763005-270x177.jpg'
p7
S'http://koreanz.com.au/wp-content/uploads/kboard_attached/219/201604/5715891d3bcf15763005.jpg'
p8
S'<iframe allowfullscreen="" frameborder="0" height="430" scrolling="no" src="http://videomega.tv/view.php?ref=111048104099079076055049100081081100049055076079099104048111&amp;width=728&amp;height=430" width="728"></iframe>'
p9
tp10
a(V\u000a\ub300\ubc30\uc6b0 (\uc0c1\uc601\uc911) (THE.GREAT.ACTOR, \ucf54\ubbf8\ub514, 2015) \uc601\ud654 \ub2e4\uc2dc\ubcf4\uae30 \ud1a0\ub80c\ud2b8\u000a
p11
S'http://koreanz.com.au/wp-content/uploads/kboard_attached/219/201604/5714b19a0b7ea9208804-270x177.jpg'
p12
S'http://koreanz.com.au/wp-content/uploads/kboard_attached/219/201604/5714b19a0b7ea9208804.jpg'
p13
S'<iframe allowfullscreen="" frameborder="0" height="430" scrolling="no" src="http://videomega.tv/view.php?ref=078097105107119066072051057057057057051072066119107105097078&amp;width=728&amp;height=430" width="728"></iframe>'
p14
tp15
a(V\u000a\ud2b8\uc708\uc2a4\ud130\uc988 (2016,3\uc6d4\uac1c\ubd09) (Twinsters, \ub2e4\ud050,\uac00\uc871, 2014) \uc601\ud654 \ub2e4\uc2dc\ubcf4\uae30 \ud1a0\ub80c\ud2b8\u000a
p16
S'http://koreanz.com.au/wp-content/uploads/kboard_attached/219/201604/571493a24761d2478521-270x177.jpg'
p17
S'http://koreanz.com.au/wp-content/uploads/kboard_attached/219/201604/571493a24761d2478521.jpg'
p18
S'<iframe allowfullscreen="" frameborder="0" height="430" scrolling="no" src="http://videomega.tv/view.php?ref=083118051121097066053084057110110057084053066097121051118083&amp;width=728&amp;height=430" width="728"></iframe>'
p19
tp20
a(V\u000a\uc218\uc0c9\uc5ed (\uc0c1\uc601\uc911) (Su.saek, \ub4dc\ub77c\ub9c8, \uc561\uc158, 2014) \uc601\ud654 \ub2e4\uc2dc\ubcf4\uae30 \ud1a0\ub80c\ud2b8\u000a
p21
S'http://koreanz.com.au/wp-content/uploads/kboard_attached/219/201604/5711ee7b831f95643897-270x177.jpg'
p22
S'http://koreanz.com.au/wp-content/uploads/kboard_attached/219/201604/5711ee7b831f95643897.jpg'
p23
S'<iframe allowfullscreen="" frameborder="0" height="430" scrolling="no" src="http://videomega.tv/view.php?ref=072084109053082112055112110052052110112055112082053109084072&amp;width=728&amp;height=430" width="728"></iframe>'
p24
tp25
a(V\u000a\uadc0\ud5a5 (Spirits.Homecoming, \ub4dc\ub77c\ub9c8, 2015) \uc601\ud654 \ub2e4\uc2dc\ubcf4\uae30 \ud1a0\ub80c\ud2b8\u000a
p26
S'http://koreanz.com.au/wp-content/uploads/kboard_attached/219/201604/570eebbb00a492301575-270x177.jpg'
p27
S'http://koreanz.com.au/wp-content/uploads/kboard_attached/219/201604/570eebbb00a492301575.jpg'
p28
S'<iframe allowfullscreen="" frameborder="0" height="430" scrolling="no" src="http://videomega.tv/view.php?ref=074053081122102051065121111048048111121065051102122081053074&amp;width=728&amp;height=430" width="728"></iframe>'
p29
tp30
a(V\u000a\ubc88\uac1c\ub9e8 (\uc0c1\uc601\uc911) (Bungaeman, \ud310\ud0c0\uc9c0, 2016) \uc601\ud654 \ub2e4\uc2dc\ubcf4\uae30 \ud1a0\ub80c\ud2b8\u000a
p31
S'http://koreanz.com.au/wp-content/uploads/kboard_attached/219/201604/5709f358da9cb3222761-270x177.jpg'
p32
S'http://koreanz.com.au/wp-content/uploads/kboard_attached/219/201604/5709f358da9cb3222761.jpg'
p33
S'<iframe allowfullscreen="" frameborder="0" height="430" scrolling="no" src="http://videomega.tv/view.php?ref=115071120056056115112070088057057088070112115056056120071115&amp;width=728&amp;height=430" width="728"></iframe>'
p34
tp35
a(V\u000a\uace0\ubc31\ud560 \uc218 \uc5c6\ub294 (\uc0c1\uc601\uc911) (Unconfessional, \ubc94\uc8c4, \uc2a4\ub9b4\ub7ec, 2016) \uc601\ud654 \ub2e4\uc2dc\ubcf4\uae30 \ud1a0\ub80c\ud2b8\u000a
p36
S'http://koreanz.com.au/wp-content/uploads/kboard_attached/219/201604/570723bd9917b9471132-270x177.jpg'
p37
S'http://koreanz.com.au/wp-content/uploads/kboard_attached/219/201604/570723bd9917b9471132.jpg'
p38
S'<iframe allowfullscreen="" frameborder="0" height="430" scrolling="no" src="http://videomega.tv/view.php?ref=110050048053083106107069076105105076069107106083053048050110&amp;width=728&amp;height=430" width="728"></iframe>'
p39
tp40
a(V\u000a\uc124\ud589_\ub208\uae38\uc744 \uac77\ub2e4(\uc0c1\uc601\uc911) (Snow Paths, \ub4dc\ub77c\ub9c8, 2016) \uc601\ud654 \ub2e4\uc2dc\ubcf4\uae30 \ud1a0\ub80c\ud2b8\u000a
p41
S'http://koreanz.com.au/wp-content/uploads/kboard_attached/219/201604/5703dba51fdd67008379-270x177.jpg'
p42
S'http://koreanz.com.au/wp-content/uploads/kboard_attached/219/201604/5703dba51fdd67008379.jpg'
p43
S'<iframe allowfullscreen="" frameborder="0" height="430" scrolling="no" src="http://videomega.tv/view.php?ref=114106075078106051049119066048048066119049051106078075106114&amp;width=728&amp;height=430" width="728"></iframe>'
p44
tp45
a(V\u000a\ucee4\ud130 (Eclipse, \ubc94\uc8c4, \ub4dc\ub77c\ub9c8, 2016) \uc601\ud654 \ub2e4\uc2dc\ubcf4\uae30 \ud1a0\ub80c\ud2b8\u000a
p46
S'http://koreanz.com.au/wp-content/uploads/kboard_attached/219/201604/57036c547d0305539634-270x177.jpg'
p47
S'http://koreanz.com.au/wp-content/uploads/kboard_attached/219/201604/57036c547d0305539634.jpg'
p48
S'<iframe allowfullscreen="" frameborder="0" height="430" scrolling="no" src="http://videomega.tv/view.php?ref=052055099057101084104084082115115082084104084101057099055052&amp;width=728&amp;height=430" width="728"></iframe>'
p49
tp50
a(V\u000a\ub110 \uae30\ub2e4\ub9ac\uba70 (Missing You, \uc2a4\ub9b4\ub7ec, 2016) \uc601\ud654 \ub2e4\uc2dc\ubcf4\uae30 \ud1a0\ub80c\ud2b8\u000a
p51
S'http://koreanz.com.au/wp-content/uploads/kboard_attached/219/201603/56fb5a9f5d8268005630-270x177.jpg'
p52
S'http://koreanz.com.au/wp-content/uploads/kboard_attached/219/201603/56fb5a9f5d8268005630.jpg'
p53
S'<iframe allowfullscreen="" frameborder="0" height="430" scrolling="no" src="http://videomega.tv/view.php?ref=110056088089079050119108115050050115108119050079089088056110&amp;width=728&amp;height=430" width="728"></iframe>'
p54
tp55
a(V\u000a\ub0a8\uacfc \uc5ec (A Man and A Woman, \uba5c\ub85c/\ub85c\ub9e8\uc2a4, 2016) \uc601\ud654 \ub2e4\uc2dc\ubcf4\uae30 \ud1a0\ub80c\ud2b8\u000a
p56
S'http://koreanz.com.au/wp-content/uploads/kboard_attached/219/201603/56fb135ce9adc5994256-270x177.jpg'
p57
S'http://koreanz.com.au/wp-content/uploads/kboard_attached/219/201603/56fb135ce9adc5994256.jpg'
p58
S'<iframe allowfullscreen="" frameborder="0" height="430" scrolling="no" src="http://videomega.tv/view.php?ref=118073056077105109053082100051051100082053109105077056073118&amp;width=728&amp;height=430" width="728"></iframe>'
p59
tp60
a(V\u000a\uc5d8 \uaf30\ub3c4\ub974 \ube60\uc0ac (\uc0c1\uc601\uc911) (El.Condor.Pasa.2016) \uc601\ud654 \ub2e4\uc2dc\ubcf4\uae30 \ud1a0\ub80c\ud2b8\u000a
p61
S'http://koreanz.com.au/wp-content/uploads/kboard_attached/219/201603/56fa419b481d53814207-270x177.jpg'
p62
S'http://koreanz.com.au/wp-content/uploads/kboard_attached/219/201603/56fa419b481d53814207.jpg'
p63
S'<iframe allowfullscreen="" frameborder="0" height="430" scrolling="no" src="http://videomega.tv/view.php?ref=071056071110068057051097098116116098097051057068110071056071&amp;width=728&amp;height=430" width="728"></iframe>'
p64
tp65
a(V\u000a\ubc29 \uc548\uc758 \ucf54\ub07c\ub9ac(\uc0c1\uc601\uc911) (Elephant.in.the.Room.2016) \uc601\ud654 \ub2e4\uc2dc\ubcf4\uae30 \ud1a0\ub80c\ud2b8\u000a
p66
S'http://koreanz.com.au/wp-content/uploads/kboard_attached/219/201603/56fa3a75d88f15338049-270x177.jpg'
p67
S'http://koreanz.com.au/wp-content/uploads/kboard_attached/219/201603/56fa3a75d88f15338049.jpg'
p68
S'<iframe allowfullscreen="" frameborder="0" height="430" scrolling="no" src="http://videomega.tv/view.php?ref=090057056101077114078108053121121053108078114077101056057090&amp;width=728&amp;height=430" width="728"></iframe>'
p69
tp70
a(V\u000a\uc2e4\ub860, \uc138\ub80c\ub514\ud53c\ud2f0 (Ceylon.Serendipity, \ub4dc\ub77c\ub9c8, 2015) \uc601\ud654 \ub2e4\uc2dc\ubcf4\uae30 \ud1a0\ub80c\ud2b8\u000a
p71
S'http://koreanz.com.au/wp-content/uploads/kboard_attached/219/201603/56f68ae57d0c03518130-270x177.jpg'
p72
S'http://koreanz.com.au/wp-content/uploads/kboard_attached/219/201603/56f68ae57d0c03518130.jpg'
p73
S'<iframe allowfullscreen="" frameborder="0" height="430" scrolling="no" src="http://videomega.tv/view.php?ref=069098048118065051104068053115115053068104051065118048098069&amp;width=728&amp;height=430" width="728"></iframe>'
p74
tp75
a(V\u000a\ud788\uc57c (HIYA, \ub4dc\ub77c\ub9c8, 2016) \uc601\ud654 \ub2e4\uc2dc\ubcf4\uae30 \ud1a0\ub80c\ud2b8\u000a
p76
S'http://koreanz.com.au/wp-content/uploads/kboard_attached/219/201603/56f1e0864b8581244789-270x177.jpg'
p77
S'http://koreanz.com.au/wp-content/uploads/kboard_attached/219/201603/56f1e0864b8581244789.jpg'
p78
S'<iframe allowfullscreen="" frameborder="0" height="430" scrolling="no" src="http://videomega.tv/view.php?ref=071076050057082108110122050103103050122110108082057050076071&amp;width=728&amp;height=430" width="728"></iframe>'
p79
tp80
a(V\u000a\ub098\uc758 \uc544\ub4e4, \ub098\uc758 \uc5b4\uba38\ub2c8 (Where Is My Son?, \ub2e4\ud050, 2015) \uc601\ud654 \ub2e4\uc2dc\ubcf4\uae30 \ud1a0\ub80c\ud2b8\u000a
p81
S'http://koreanz.com.au/wp-content/uploads/kboard_attached/219/201603/56f0975465c227519543-270x177.jpg'
p82
S'http://koreanz.com.au/wp-content/uploads/kboard_attached/219/201603/56f0975465c227519543.jpg'
p83
S'<iframe allowfullscreen="" frameborder="0" height="430" scrolling="no" src="http://videomega.tv/view.php?ref=048117110114054052119089089074074089089119052054114110117048&amp;width=728&amp;height=430" width="728"></iframe>'
p84
tp85
a(V\u000a\uc12c. \uc0ac\ub77c\uc9c4 \uc0ac\ub78c\ub4e4 (\uc0c1\uc601\uc911) (No Tomorrow, \uc2a4\ub9b4\ub7ec, 2015) \uc601\ud654 \ub2e4\uc2dc\ubcf4\uae30 \ud1a0\ub80c\ud2b8\u000a
p86
S'http://koreanz.com.au/wp-content/uploads/kboard_attached/219/201603/56ea521edd1428854916-270x177.jpg'
p87
S'http://koreanz.com.au/wp-content/uploads/kboard_attached/219/201603/56ea521edd1428854916.jpg'
p88
S'<iframe allowfullscreen="" frameborder="0" height="430" scrolling="no" src="http://videomega.tv/view.php?ref=104112090057056101072074108054054108074072101056057090112104&amp;width=728&amp;height=430" width="728"></iframe>'
p89
tp90
a(V\u000a\uc88b\uc544\ud574\uc918 (\uc0c1\uc601\uc911) (Like for Likes, \uba5c\ub85c/\ub85c\ub9e8\uc2a4, \ucf54\ubbf8\ub514, 2015) \uc601\ud654 \ub2e4\uc2dc\ubcf4\uae30 \ud1a0\ub80c\ud2b8\u000a
p91
S'http://koreanz.com.au/wp-content/uploads/kboard_attached/219/201603/56ea4f02aa1538799461-270x177.jpg'
p92
S'http://koreanz.com.au/wp-content/uploads/kboard_attached/219/201603/56ea4f02aa1538799461.jpg'
p93
S'<iframe allowfullscreen="" frameborder="0" height="430" scrolling="no" src="http://videomega.tv/view.php?ref=112067113048089065099100050056056050100099065089048113067112&amp;width=728&amp;height=430" width="728"></iframe>'
p94
tp95
a(V\u000a\ubb34\uc218\ub2e8 (\uc0c1\uc601\uc911) (MUSUDAN, \uc2a4\ub9b4\ub7ec, 2016) \uc601\ud654 \ub2e4\uc2dc\ubcf4\uae30 \ud1a0\ub80c\ud2b8\u000a
p96
S'http://koreanz.com.au/wp-content/uploads/kboard_attached/219/201603/56e81a5987a6c6123222-270x177.jpg'
p97
S'http://koreanz.com.au/wp-content/uploads/kboard_attached/219/201603/56e81a5987a6c6123222.jpg'
p98
S'<iframe allowfullscreen="" frameborder="0" height="430" scrolling="no" src="http://videomega.tv/view.php?ref=055121051122074084048114071098098071114048084074122051121055&amp;width=728&amp;height=430" width="728"></iframe>'
p99
tp100
a(V\u000a\uac80\uc0ac\uc678\uc804 (A Violent Prosecutor, \ubc94\uc8c4, \ucf54\ubbf8\ub514, 2015) \uc601\ud654 \ub2e4\uc2dc\ubcf4\uae30 \ud1a0\ub80c\ud2b8\u000a
p101
S'http://koreanz.com.au/wp-content/uploads/kboard_attached/219/201603/56e24b651fbe28414760-270x177.jpg'
p102
S'http://koreanz.com.au/wp-content/uploads/kboard_attached/219/201603/56e24b651fbe28414760.jpg'
p103
S'<iframe allowfullscreen="" frameborder="0" height="430" scrolling="no" src="http://videomega.tv/view.php?ref=068117055071048103115119056081081056119115103048071055117068&amp;width=728&amp;height=430" width="728"></iframe>'
p104
tp105
a(V\u000a\uc21c\uc815 (UNFORGETTABLE, \ub4dc\ub77c\ub9c8, 2016) \uc601\ud654 \ub2e4\uc2dc\ubcf4\uae30 \ud1a0\ub80c\ud2b8\u000a
p106
S'http://koreanz.com.au/wp-content/uploads/kboard_attached/219/201603/56e0d7baecfca3294828-270x177.jpg'
p107
S'http://koreanz.com.au/wp-content/uploads/kboard_attached/219/201603/56e0d7baecfca3294828.jpg'
p108
S'<iframe allowfullscreen="" frameborder="0" height="430" scrolling="no" src="http://videomega.tv/view.php?ref=085051103122109072112049053086086053049112072109122103051085&amp;width=728&amp;height=430" width="728"></iframe>'
p109
tp110
a(V\u000a\uadf9\ube44\uc218\uc0ac (The Classified File, \ub4dc\ub77c\ub9c8, \ubc94\uc8c4, 2015) \uc601\ud654 \ub2e4\uc2dc\ubcf4\uae30\u000a
p111
S'http://koreanz.com.au/wp-content/uploads/kboard_attached/219/201603/56df828130d897881045-270x177.jpg'
p112
S'http://koreanz.com.au/wp-content/uploads/kboard_attached/219/201603/56df828130d897881045.jpg'
p113
S'<iframe allowfullscreen="" frameborder="0" height="430" scrolling="no" src="http://videomega.tv/view.php?ref=085049118101089054084102052105105052102084054089101118049085&amp;width=728&amp;height=430" width="728"></iframe>'
p114
tp115
a(V\u000a\uc0b4\uc778\uc758\ub8b0 (The Deal, \ubc94\uc8c4, \uc2a4\ub9b4\ub7ec, 2014) \uc601\ud654 \ub2e4\uc2dc\ubcf4\uae30\u000a
p116
S'http://koreanz.com.au/wp-content/uploads/kboard_attached/219/201603/56dd5cfd2f7759664433-270x177.jpg'
p117
S'http://koreanz.com.au/wp-content/uploads/kboard_attached/219/201603/56dd5cfd2f7759664433.jpg'
p118
S'<iframe allowfullscreen="" frameborder="0" height="430" scrolling="no" src="http://videomega.tv/view.php?ref=050052070112086112078053118118118118053078112086112070052050&amp;width=728&amp;height=430" width="728"></iframe>'
p119
tp120
a(V\u000a\uc0ac\ub791\uc624\uac10 (\ubbf8\uac1c\ubd09) \uc601\ud654 \ub2e4\uc2dc\ubcf4\uae30 \ud1a0\ub80c\ud2b8\u000a
p121
S'http://koreanz.com.au/wp-content/uploads/kboard_attached/219/201603/56da56d430d674796588-270x177.jpg'
p122
S'http://koreanz.com.au/wp-content/uploads/kboard_attached/219/201603/56da56d430d674796588.jpg'
p123
S'<iframe allowfullscreen="" frameborder="0" height="430" scrolling="no" src="http://videomega.tv/view.php?ref=048080111119070122056069112054054112069056122070119111080048&amp;width=728&amp;height=430" width="728"></iframe>'
p124
tp125
a(V\u000a\ub098\uc05c \ub098\ub77c (Cruel State, \ub2e4\ud050, 2015) \uc601\ud654 \ub2e4\uc2dc\ubcf4\uae30 \ud1a0\ub80c\ud2b8\u000a
p126
S'http://koreanz.com.au/wp-content/uploads/kboard_attached/219/201602/56cef4e2805af4534775-270x177.jpg'
p127
S'http://koreanz.com.au/wp-content/uploads/kboard_attached/219/201602/56cef4e2805af4534775.jpg'
p128
S'<iframe allowfullscreen="" frameborder="0" height="430" scrolling="no" src="http://videomega.tv/view.php?ref=118073054054068053107117117068068117117107053068054054073118&amp;width=700&amp;height=430" width="700"></iframe>'
p129
tp130
a(V\u000a\ub85c\ubd07, \uc18c\ub9ac (SORI: Voice from the Heart, \ub4dc\ub77c\ub9c8, 2015) \uc601\ud654 \ub2e4\uc2dc\ubcf4\uae30 \ud1a0\ub80c\ud2b8\u000a
p131
S'http://koreanz.com.au/wp-content/uploads/kboard_attached/219/201602/56cdaa793fcd74709130-270x177.jpg'
p132
S'http://koreanz.com.au/wp-content/uploads/kboard_attached/219/201602/56cdaa793fcd74709130.jpg'
p133
S'<iframe allowfullscreen="" frameborder="0" height="430" scrolling="no" src="http://videomega.tv/view.php?ref=074109049115113098067057089049049089057067098113115049109074&amp;width=700&amp;height=430" width="700"></iframe>'
p134
tp135
a(V\u000a\uc384\uc2dc\ubd09 (C'est Si Bon, \uba5c\ub85c/\ub85c\ub9e8\uc2a4, \ub4dc\ub77c\ub9c8, 2015) \uc601\ud654 \ub2e4\uc2dc\ubcf4\uae30\u000a
p136
S'http://koreanz.com.au/wp-content/uploads/kboard_attached/219/201602/56cad0807ccf87178154-270x177.jpg'
p137
S'http://koreanz.com.au/wp-content/uploads/kboard_attached/219/201602/56cad0807ccf87178154.jpg'
p138
S'<iframe allowfullscreen="" frameborder="0" height="430" scrolling="no" src="http://videomega.tv/view.php?ref=098087119050048117048118079078078079118048117048050119087098&amp;width=700&amp;height=430" width="700"></iframe>'
p139
tp140
a(V\u000a\uba5c\ub9ac\uc2a4 (Malice, \uacf5\ud3ec, \uc2a4\ub9b4\ub7ec, 2015) \uc601\ud654 \ub2e4\uc2dc\ubcf4\uae30 \ud1a0\ub80c\ud2b8\u000a
p141
S'http://koreanz.com.au/wp-content/uploads/kboard_attached/219/201602/56c7a906cf6ba7549240-270x177.jpg'
p142
S'http://koreanz.com.au/wp-content/uploads/kboard_attached/219/201602/56c7a906cf6ba7549240.jpg'
p143
S'<iframe allowfullscreen="" frameborder="0" height="430" scrolling="no" src="http://videomega.tv/view.php?ref=098053120086122076080052120049049120052080076122086120053098&amp;width=700&amp;height=430" width="700"></iframe>'
p144
tp145
a(V\u000a\uc6b8\ubcf4 (Stay with Me, \ub4dc\ub77c\ub9c8, 2015) \uc601\ud654 \ub2e4\uc2dc\ubcf4\uae30 \ud1a0\ub80c\ud2b8\u000a
p146
S'http://koreanz.com.au/wp-content/uploads/kboard_attached/219/201602/56c6ce3e308147534526-270x177.jpg'
p147
S'http://koreanz.com.au/wp-content/uploads/kboard_attached/219/201602/56c6ce3e308147534526.jpg'
p148
S'<iframe allowfullscreen="" frameborder="0" height="430" scrolling="no" src="http://videomega.tv/view.php?ref=114107055057077075098085113057057113085098075077057055107114&amp;width=700&amp;height=430" width="700"></iframe>'
p149
tp150
a(V\u000a\uc624\ube60\uc0dd\uac01 (A Melody to Remember, \uc804\uc7c1, \ub4dc\ub77c\ub9c8, 2015) \uc601\ud654 \ub2e4\uc2dc\ubcf4\uae30 \ud1a0\ub80c\ud2b8\u000a
p151
S'http://koreanz.com.au/wp-content/uploads/kboard_attached/219/201602/56c2ccb525afc3919827-270x177.jpg'
p152
S'http://koreanz.com.au/wp-content/uploads/kboard_attached/219/201602/56c2ccb525afc3919827.jpg'
p153
S'<iframe allowfullscreen="" frameborder="0" height="430" scrolling="no" src="http://videomega.tv/view.php?ref=079048122111100055098048066073073066048098055100111122048079&amp;width=700&amp;height=430" width="700"></iframe>'
p154
tp155
a(V\u000a\ud30c\ub9ac\uc758 \ud55c\uad6d\ub0a8\uc790 (A Korean in Paris, \ub4dc\ub77c\ub9c8, 2015) \uc601\ud654 \ub2e4\uc2dc\ubcf4\uae30 \ud1a0\ub80c\ud2b8\u000a
p156
S'http://koreanz.com.au/wp-content/uploads/kboard_attached/219/201602/56bc8eb1096e48560472-270x177.jpg'
p157
S'http://koreanz.com.au/wp-content/uploads/kboard_attached/219/201602/56bc8eb1096e48560472.jpg'
p158
S'<iframe allowfullscreen="" frameborder="0" height="430" scrolling="no" src="http://videomega.tv/view.php?ref=048098097074089051048108113086086113108048051089074097098048&amp;width=700&amp;height=430" width="700"></iframe>'
p159
tp160
a(V\u000a\uae30\uc801\uc758 \ud53c\uc544\ub178 (The Piano, \ub2e4\ud050, 2015) \uc601\ud654 \ub2e4\uc2dc\ubcf4\uae30 \ud1a0\ub80c\ud2b8\u000a
p161
S'http://koreanz.com.au/wp-content/uploads/kboard_attached/219/201602/56b93227d9ec81099686-270x177.jpg'
p162
S'http://koreanz.com.au/wp-content/uploads/kboard_attached/219/201602/56b93227d9ec81099686.jpg'
p163
S'<iframe allowfullscreen="" frameborder="0" height="430" scrolling="no" src="http://videomega.tv/view.php?ref=114053106054066048067107103081081103107067048066054106053114&amp;width=700&amp;height=430" width="700"></iframe>'
p164
tp165
a(V\u000a\ud504\ub791\uc2a4 \uc601\ud654\ucc98\ub7fc (Like a French Film, \ub4dc\ub77c\ub9c8, 2015) \uc601\ud654 \ub2e4\uc2dc\ubcf4\uae30 \ud1a0\ub80c\ud2b8\u000a
p166
S'http://koreanz.com.au/wp-content/uploads/kboard_attached/219/201602/56b45624e63936132642-270x177.jpg'
p167
S'http://koreanz.com.au/wp-content/uploads/kboard_attached/219/201602/56b45624e63936132642.jpg'
p168
S'<iframe allowfullscreen="" frameborder="0" height="430" scrolling="no" src="http://videomega.tv/view.php?ref=056120109105050056104069090076076090069104056050105109120056&amp;width=700&amp;height=430" width="700"></iframe>'
p169
tp170
a(V\u000a\uadf8\ub0a0\uc758 \ubd84\uc704\uae30 (Mood of the Day, \uba5c\ub85c/\ub85c\ub9e8\uc2a4, \ucf54\ubbf8\ub514, 2015) \uc601\ud654 \ub2e4\uc2dc\ubcf4\uae30\u000a
p171
S'http://koreanz.com.au/wp-content/uploads/kboard_attached/219/201602/56b3510d415939842122-270x177.jpg'
p172
S'http://koreanz.com.au/wp-content/uploads/kboard_attached/219/201602/56b3510d415939842122.jpg'
p173
S'<iframe allowfullscreen="" frameborder="0" height="430" scrolling="no" src="http://videomega.tv/view.php?ref=121104075106102090050054051072072051054050090102106075104121&amp;width=700&amp;height=430" width="700"></iframe>'
p174
tp175
a(V\u000a\ud788\ub9d0\ub77c\uc57c (The Himalayas, \ub4dc\ub77c\ub9c8, 2015) \uc601\ud654 \ub2e4\uc2dc\ubcf4\uae30 \ud1a0\ub80c\ud2b8\u000a
p176
S'http://koreanz.com.au/wp-content/uploads/kboard_attached/219/201602/56b3431fb323d8612464-270x177.jpg'
p177
S'http://koreanz.com.au/wp-content/uploads/kboard_attached/219/201602/56b3431fb323d8612464.jpg'
p178
S'<iframe allowfullscreen="" frameborder="0" height="430" scrolling="no" src="http://videomega.tv/view.php?ref=056055100072077119097053082099099082053097119077072100055056&amp;width=700&amp;height=430" width="700"></iframe>'
p179
tp180
a(V\u000a\uce5c\uc560\ud558\ub294 \uc9c0\ub3c4\uc790\ub3d9\uc9c0\uaed8 (Dear Dictator, \ub4dc\ub77c\ub9c8, 2015) \uc601\ud654 \ub2e4\uc2dc\ubcf4\uae30 \ud1a0\ub80c\ud2b8\u000a
p181
S'http://koreanz.com.au/wp-content/uploads/kboard_attached/219/201601/56adb822c4d763549559-270x177.jpg'
p182
S'http://koreanz.com.au/wp-content/uploads/kboard_attached/219/201601/56adb822c4d763549559.jpg'
p183
S'<iframe allowfullscreen="" frameborder="0" height="430" scrolling="no" src="http://videomega.tv/view.php?ref=051114052114111081106070078054054078070106081111114052114051&amp;width=700&amp;height=430" width="700"></iframe>'
p184
tp185
a(V\u000a\ub098\ub97c \uc78a\uc9c0 \ub9d0\uc544\uc694 (Remember You, \uba5c\ub85c/\ub85c\ub9e8\uc2a4, 2016) \uc601\ud654 \ub2e4\uc2dc\ubcf4\uae30 \ud1a0\ub80c\ud2b8\u000a
p186
S'http://koreanz.com.au/wp-content/uploads/kboard_attached/219/201601/56a80636875349184889-270x177.jpg'
p187
S'http://koreanz.com.au/wp-content/uploads/kboard_attached/219/201601/56a80636875349184889.jpg'
p188
S'<iframe allowfullscreen="" frameborder="0" height="430" scrolling="no" src="http://videomega.tv/view.php?ref=109106049070048118056071066107107066071056118048070049106109&amp;width=700&amp;height=430" width="700"></iframe>'
p189
tp190
a(V\u000a\ub0b4\ubd80\uc790\ub4e4: \ub514 \uc624\ub9ac\uc9c0\ub110 (Inside Men: The Original, \ubc94\uc8c4, \ub4dc\ub77c\ub9c8, 2015) \uc601\ud654 \ub2e4\uc2dc\ubcf4\uae30 \ud1a0\ub80c\ud2b8\u000a
p191
S'http://koreanz.com.au/wp-content/uploads/kboard_attached/219/201601/56a342db58b749542053-270x177.jpg'
p192
S'http://koreanz.com.au/wp-content/uploads/kboard_attached/219/201601/56a342db58b749542053.jpg'
p193
S'<iframe allowfullscreen="" frameborder="0" height="430" scrolling="no" src="http://videomega.tv/view.php?ref=048075104122074052114101050071071050101114052074122104075048&amp;width=700&amp;height=430" width="700"></iframe>'
p194
tp195
a(V\u000a\uc870\uc120\ub9c8\uc220\uc0ac (The Magician, \ub4dc\ub77c\ub9c8, 2015) \uc601\ud654 \ub2e4\uc2dc\ubcf4\uae30 \ud1a0\ub80c\ud2b8\u000a
p196
S'http://koreanz.com.au/wp-content/uploads/kboard_attached/219/201601/569dd221e05117451909-270x177.jpg'
p197
S'http://koreanz.com.au/wp-content/uploads/kboard_attached/219/201601/569dd221e05117451909.jpg'
p198
S'<iframe allowfullscreen="" frameborder="0" height="430" scrolling="no" src="http://videomega.tv/view.php?ref=049101121087119080099052072052052072052099080119087121101049&amp;width=700&amp;height=430" width="700"></iframe>'
p199
tp200
a(V\u000a\uc7a1\uc544\uc57c \uc0b0\ub2e4 (Chasing, \ucf54\ubbf8\ub514, \uc561\uc158, 2015) \uc601\ud654 \ub2e4\uc2dc\ubcf4\uae30 \ud1a0\ub80c\ud2b8\u000a
p201
S'http://koreanz.com.au/wp-content/uploads/kboard_attached/219/201601/569dbe501e0cf6946312-270x177.jpg'
p202
S'http://koreanz.com.au/wp-content/uploads/kboard_attached/219/201601/569dbe501e0cf6946312.jpg'
p203
S'<iframe allowfullscreen="" frameborder="0" height="430" scrolling="no" src="http://videomega.tv/view.php?ref=083122076050119051051107116074074116107051051119050076122083&amp;width=700&amp;height=430" width="700"></iframe>'
p204
tp205
a(V\u000a\uad7f\ubc14\uc774 \uadf8\ub9ac\uace0 \ud5ec\ub85c\uc6b0 (Goodbye and Hello, 2015) \uc601\ud654 \ub2e4\uc2dc\ubcf4\uae30 \ud1a0\ub80c\ud2b8\u000a
p206
S'http://koreanz.com.au/wp-content/uploads/kboard_attached/219/201601/569b4b113e0101927739-270x177.jpg'
p207
S'http://koreanz.com.au/wp-content/uploads/kboard_attached/219/201601/569b4b113e0101927739.jpg'
p208
S'<iframe allowfullscreen="" frameborder="0" height="430" scrolling="no" src="http://videomega.tv/view.php?ref=078099079054048122087054103120120103054087122048054079099078&amp;width=700&amp;height=430" width="700"></iframe>'
p209
tp210
a(V\u000a\ub300\ud638 (The Tiger, \ub4dc\ub77c\ub9c8, 2015) \uc601\ud654 \ub2e4\uc2dc\ubcf4\uae30 \ud1a0\ub80c\ud2b8\u000a
p211
S'http://koreanz.com.au/wp-content/uploads/kboard_attached/219/201601/5695a352775e64459415-270x177.jpg'
p212
S'http://koreanz.com.au/wp-content/uploads/kboard_attached/219/201601/5695a352775e64459415.jpg'
p213
S'<iframe allowfullscreen="" frameborder="0" height="430" scrolling="no" src="http://videomega.tv/view.php?ref=051072079120099050097119057077077057119097050099120079072051&amp;width=700&amp;height=430" width="700"></iframe>'
p214
tp215
a(V\u000a\ud611\ub140, \uce7c\uc758 \uae30\uc5b5 (2015) \uc601\ud654 \ub2e4\uc2dc\ubcf4\uae30\u000a
p216
S'http://koreanz.com.au/wp-content/uploads/kboard_attached/219/201601/5695a1cfeb8c19940441-270x177.jpg'
p217
S'http://koreanz.com.au/wp-content/uploads/kboard_attached/219/201601/5695a1cfeb8c19940441.jpg'
p218
S'<iframe allowfullscreen="" frameborder="0" height="270" src="//www.dailymotion.com/embed/video/x3m462z" width="480"></iframe>'
p219
tp220
a(V\u000a\uc704\ud5d8\ud55c \uc0c1\uacac\ub840 2 (Enemies In-Law, \uba5c\ub85c/\ub85c\ub9e8\uc2a4, \ucf54\ubbf8\ub514 2015) \uc601\ud654 \ub2e4\uc2dc\ubcf4\uae30\u000a
p221
S'http://koreanz.com.au/wp-content/uploads/kboard_attached/219/201601/5693b7fee74206975690-270x177.jpg'
p222
S'http://koreanz.com.au/wp-content/uploads/kboard_attached/219/201601/5693b7fee74206975690.jpg'
p223
S'<iframe allowfullscreen="" frameborder="0" height="270" src="//www.dailymotion.com/embed/video/x3ltrw2" width="480"></iframe>'
p224
tp225
a(V\u000a\ubabd\uace8\ub9ac\uc548 \ud504\ub9b0\uc138\uc2a4 (Mongolian Princess, 2015) \uc601\ud654 \ub2e4\uc2dc\ubcf4\uae30 \ud1a0\ub80c\ud2b8\u000a
p226
S'http://koreanz.com.au/wp-content/uploads/kboard_attached/219/201601/56919e23681de9752255-270x177.jpg'
p227
S'http://koreanz.com.au/wp-content/uploads/kboard_attached/219/201601/56919e23681de9752255.jpg'
p228
S'<iframe allowfullscreen="" frameborder="0" height="430" scrolling="no" src="http://videomega.tv/view.php?ref=048073049054081078110110105097097105110110078081054049073048&amp;width=700&amp;height=430" width="700"></iframe>'
p229
tp230
a(V\u000a\ub0b4\ubd80\uc790\ub4e4 (Inside Men, \ubc94\uc8c4, \ub4dc\ub77c\ub9c8, 2015) \uc601\ud654 \ub2e4\uc2dc\ubcf4\uae30 \ud1a0\ub80c\ud2b8\u000a
p231
S'http://koreanz.com.au/wp-content/uploads/kboard_attached/219/201601/568cb4827bb3d4249095-270x177.jpg'
p232
S'http://koreanz.com.au/wp-content/uploads/kboard_attached/219/201601/568cb4827bb3d4249095.jpg'
p233
S'<iframe allowfullscreen="" frameborder="0" height="430" src="http://videomega.tv/view.php?ref=049101053114057113087088074114114074088087113057114053101049&amp;width=700&amp;height=430" width="700"></iframe>'
p234
tp235
a(V\u000a\ub098\uc05c\ub188\uc740 \uc8fd\ub294\ub2e4 (Bad Guys Always Die, \uc561\uc158, \ucf54\ubbf8\ub514, 2016) \uc601\ud654 \ub2e4\uc2dc\ubcf4\uae30 \ud1a0\ub80c\ud2b8\u000a
p236
S'http://koreanz.com.au/wp-content/uploads/kboard_attached/219/201601/5689184a22b302065340-270x177.jpg'
p237
S'http://koreanz.com.au/wp-content/uploads/kboard_attached/219/201601/5689184a22b302065340.jpg'
p238
S'<iframe allowfullscreen="" frameborder="0" height="270" src="//www.dailymotion.com/embed/video/k3jXNmvhLV1roMff2BN" width="480"></iframe>'
p239
tp240
a(V\u000a\uc568\ub9ac\uc2a4 : \uc6d0\ub354\ub79c\ub4dc\uc5d0\uc11c \uc628 \uc18c\ub144 (Boy from Wonderland, \ud310\ud0c0\uc9c0, \uacf5\ud3ec, 2015) \uc601\ud654 \ub2e4\uc2dc\ubcf4\uae30 \ud1a0\ub80c\ud2b8\u000a
p241
S'http://koreanz.com.au/wp-content/uploads/kboard_attached/219/201512/567cc17e48c2d1256804-270x177.jpg'
p242
S'http://koreanz.com.au/wp-content/uploads/kboard_attached/219/201512/567cc17e48c2d1256804.jpg'
p243
S'<iframe allowfullscreen="" frameborder="0" height="430" src="http://videomega.tv/view.php?ref=055075077088109115118052049119119049052118115109088077075055&amp;width=700&amp;height=430" width="700"></iframe>'
p244
tp245
a(V\u000a\uc6b8\ubcf4 \uad8c\ud22c\ubd80 (A Crybaby Boxing Club, \ub2e4\ud050, 2014) \uc601\ud654 \ub2e4\uc2dc\ubcf4\uae30 \ud1a0\ub80c\ud2b8\u000a
p246
S'http://koreanz.com.au/wp-content/uploads/kboard_attached/219/201512/567cc11f1ab602022494-270x177.jpg'
p247
S'http://koreanz.com.au/wp-content/uploads/kboard_attached/219/201512/567cc11f1ab602022494.jpg'
p248
S'<iframe allowfullscreen="" frameborder="0" height="430" src="http://videomega.tv/view.php?ref=122049101119113086048053086071071086053048086113119101049122&amp;width=700&amp;height=430" width="700"></iframe>'
p249
tp250
a(V\u000a\uc124\uc9c0 (Sunshine.\ub4dc\ub77c\ub9c8, 2015) \uc601\ud654 \ub2e4\uc2dc\ubcf4\uae30 \ud1a0\ub80c\ud2b8\u000a
p251
S'http://koreanz.com.au/wp-content/uploads/kboard_attached/219/201512/567a38b9a1d931245170-270x177.jpg'
p252
S'http://koreanz.com.au/wp-content/uploads/kboard_attached/219/201512/567a38b9a1d931245170.jpg'
p253
S'<iframe allowfullscreen="" frameborder="0" height="430" src="http://videomega.tv/view.php?ref=057053086115073054110121068103103068121110054073115086053057&amp;width=700&amp;height=430" width="700"></iframe>'
p254
tp255
a(V\u000a\ud30c\uc77c : 4022\uc77c\uc758 \uc0ac\uc721 (The File, \ubbf8\uc2a4\ud130\ub9ac, \uc2a4\ub9b4\ub7ec, 2014) \uc601\ud654 \ub2e4\uc2dc\ubcf4\uae30 \ud1a0\ub80c\ud2b8\u000a
p256
S'http://koreanz.com.au/wp-content/uploads/kboard_attached/219/201512/56750d74195729314299-270x177.jpg'
p257
S'http://koreanz.com.au/wp-content/uploads/kboard_attached/219/201512/56750d74195729314299.jpg'
p258
S'<iframe allowfullscreen="" frameborder="0" height="430" src="http://videomega.tv/view.php?ref=049100085110106100067052051090090051052067100106110085100049&amp;width=700&amp;height=430" width="700"></iframe>'
p259
tp260
a(V\u000a\uc2ac\ud508 \ub0a8\uc790 (Sad.Man.\uc561\uc158, \uba5c\ub85c/\ub85c\ub9e8\uc2a4, 2015) \uc601\ud654 \ub2e4\uc2dc\ubcf4\uae30 \ud1a0\ub80c\ud2b8\u000a
p261
S'http://koreanz.com.au/wp-content/uploads/kboard_attached/219/201512/5673d5e6f0cad5511093-270x177.jpg'
p262
S'http://koreanz.com.au/wp-content/uploads/kboard_attached/219/201512/5673d5e6f0cad5511093.jpg'
p263
S'<iframe allowfullscreen="" frameborder="0" height="430" src="http://videomega.tv/view.php?ref=076101114051057078103049097065065097049103078057051114101076&amp;width=700&amp;height=430" width="700"></iframe>'
p264
tp265
a(V\u000a\uc5b4\ub5a4\uc774\uc758 \uafc8 (Life is but an empty dream, \ub4dc\ub77c\ub9c8 2015) \uc601\ud654 \ub2e4\uc2dc\ubcf4\uae30 \ud1a0\ub80c\ud2b8\u000a
p266
S'http://koreanz.com.au/wp-content/uploads/kboard_attached/219/201512/566e57febb6673920590-270x177.jpg'
p267
S'http://koreanz.com.au/wp-content/uploads/kboard_attached/219/201512/566e57febb6673920590.jpg'
p268
S'<iframe allowfullscreen="" frameborder="0" height="270" src="//www.dailymotion.com/embed/video/x3i943m" width="480"></iframe>'
p269
tp270
a(V\u000a\uac80\uc740 \uc0ac\uc81c\ub4e4 (The Priests, \ubbf8\uc2a4\ud130\ub9ac, \ub4dc\ub77c\ub9c8.2015) \uc601\ud654 \ub2e4\uc2dc\ubcf4\uae30 \ud1a0\ub80c\ud2b8\u000a
p271
S'http://koreanz.com.au/wp-content/uploads/kboard_attached/219/201512/566e54ce5006a2423915-270x177.jpg'
p272
S'http://koreanz.com.au/wp-content/uploads/kboard_attached/219/201512/566e54ce5006a2423915.jpg'
p273
S'<iframe allowfullscreen="" frameborder="0" height="430" src="http://videomega.tv/view.php?ref=116056086115057066075100098048048098100075066057115086056116&amp;width=700&amp;height=430" width="700"></iframe>'
p274
tp275
a(V\u000a\ub3c4\ub9ac\ud654\uac00 (The Sound Of A Flower \ub4dc\ub77c\ub9c8, 2015) \uc601\ud654 \ub2e4\uc2dc\ubcf4\uae30 \ud1a0\ub80c\ud2b8\u000a
p276
S'http://koreanz.com.au/wp-content/uploads/kboard_attached/219/201512/566bbf4b0c8962230748-270x177.jpg'
p277
S'http://koreanz.com.au/wp-content/uploads/kboard_attached/219/201512/566bbf4b0c8962230748.jpg'
p278
S'<iframe allowfullscreen="" frameborder="0" height="430" src="http://videomega.tv/view.php?ref=053053070103080112099056089104104089056099112080103070053053&amp;width=700&amp;height=430" width="700"></iframe>'
p279
tp280
a(V\u000a\uc5f4\uc815 \uac19\uc740 \uc18c\ub9ac\ud558\uace0 \uc788\ub124 (\ucf54\ubbf8\ub514, \ub4dc\ub77c\ub9c8,2015) \uc601\ud654 \ub2e4\uc2dc\ubcf4\uae30 \ud1a0\ub80c\ud2b8\u000a
p281
S'http://koreanz.com.au/wp-content/uploads/kboard_attached/219/201512/566bb99fe4b9b9712700-270x177.jpg'
p282
S'http://koreanz.com.au/wp-content/uploads/kboard_attached/219/201512/566bb99fe4b9b9712700.jpg'
p283
S'<iframe allowfullscreen="" frameborder="0" height="430" src="http://videomega.tv/view.php?ref=054085084109088054109097111053053111097109054088109084085054&amp;width=700&amp;height=430" width="700"></iframe>'
p284
tp285
a(V\u000a\ub299\uc740 \uc790\uc804\uac70 (Old Bicycle, \uac00\uc871, \ub4dc\ub77c\ub9c8, 2015) \uc601\ud654 \ub2e4\uc2dc\ubcf4\uae30\u000a
p286
S'http://koreanz.com.au/wp-content/uploads/kboard_attached/219/201512/201512030543521952654-270x177.jpg'
p287
S'http://koreanz.com.au/wp-content/uploads/kboard_attached/219/201512/201512030543521952654.jpg'
p288
S'<iframe allowfullscreen="" frameborder="0" height="430" scrolling="no" src="http://videomega.tv/view.php?ref=057118066098080106056106050068068050106056106080098066118057&amp;width=700&amp;height=430" width="700"></iframe>'
p289
tp290
a(V\u000a\ud574\uc5d0\uac8c\uc11c \uc18c\ub144\uc5d0\uac8c (Under the Sun, \ub4dc\ub77c\ub9c8, 2015) \uc601\ud654 \ub2e4\uc2dc\ubcf4\uae30\u000a
p291
S'http://koreanz.com.au/wp-content/uploads/kboard_attached/219/201512/201512030406331821026-270x177.jpg'
p292
S'http://koreanz.com.au/wp-content/uploads/kboard_attached/219/201512/201512030406331821026.jpg'
p293
S'<iframe allowfullscreen="" frameborder="0" height="430" scrolling="no" src="http://videomega.tv/view.php?ref=114048051098055065099078081106106081078099065055098051048114&amp;width=700&amp;height=430" width="700"></iframe>'
p294
tp295
a(V\u000a\ud2b9\uc885: \ub7c9\uccb8\uc0b4\uc778\uae30 2015 \uc601\ud654 \ub2e4\uc2dc\ubcf4\uae30 & \ud1a0\ub80c\ud2b8\u000a
p296
S'http://koreanz.com.au/wp-content/uploads/kboard_attached/219/201511/201511251113281189535-270x177.jpg'
p297
S'http://koreanz.com.au/wp-content/uploads/kboard_attached/219/201511/201511251113281189535.jpg'
p298
S'<iframe allowfullscreen="" frameborder="0" height="270" src="//www.dailymotion.com/embed/video/x3n7i9h" width="480"></iframe>'
p299
tp300
a(V\u000a\uadf8\ub188\uc774\ub2e4 FATAL.INTUITION.2015 \uc601\ud654 \ub2e4\uc2dc\ubcf4\uae30 & \ud1a0\ub80c\ud2b8\u000a
p301
S'http://koreanz.com.au/wp-content/uploads/kboard_attached/219/201511/201511201155001455330-270x177.jpg'
p302
S'http://koreanz.com.au/wp-content/uploads/kboard_attached/219/201511/201511201155001455330.jpg'
p303
S'<iframe allowfullscreen="" frameborder="0" height="430" scrolling="no" src="http://videomega.tv/view.php?ref=119111057070103083048119055088088055119048083103070057111119&amp;width=700&amp;height=430" width="700"></iframe>'
p304
tp305
a(V\u000a\ub3cc\uc5f0\ubcc0\uc774 Collective.Invention.2015 \uc601\ud654 \ub2e4\uc2dc\ubcf4\uae30 & \ud1a0\ub80c\ud2b8\u000a
p306
S'http://koreanz.com.au/wp-content/uploads/kboard_attached/219/201511/201511190558001256650-270x177.jpg'
p307
S'http://koreanz.com.au/wp-content/uploads/kboard_attached/219/201511/201511190558001256650.jpg'
p308
S'<iframe allowfullscreen="" frameborder="0" height="430" scrolling="no" src="http://videomega.tv/view.php?ref=101100056053050118104090082083083082090104118050053056100101&amp;width=700&amp;height=430" width="700"></iframe>'
p309
tp310
a(V\u000a\ub354 \ud3f0 The.Phone.2015 \uc601\ud654 \ub2e4\uc2dc\ubcf4\uae30 & \ud1a0\ub80c\ud2b8\u000a
p311
S'http://koreanz.com.au/wp-content/uploads/kboard_attached/219/201511/201511171153391693988-270x177.jpg'
p312
S'http://koreanz.com.au/wp-content/uploads/kboard_attached/219/201511/201511171153391693988.jpg'
p313
S'<iframe allowfullscreen="" frameborder="0" height="430" scrolling="no" src="http://videomega.tv/view.php?ref=116083103072078048050122120050050120122050048078072103083116&amp;width=700&amp;height=430" width="700"></iframe>'
p314
tp315
a(V\u000a\uc131\ub09c \ubcc0\ud638\uc0ac The.Advocate.2015 \uc601\ud654 \ub2e4\uc2dc\ubcf4\uae30 & \ud1a0\ub80c\ud2b8\u000a
p316
S'http://koreanz.com.au/wp-content/uploads/kboard_attached/219/201511/201511121128151819588-270x177.jpg'
p317
S'http://koreanz.com.au/wp-content/uploads/kboard_attached/219/201511/201511121128151819588.jpg'
p318
S'<iframe allowfullscreen="" frameborder="0" height="430" scrolling="no" src="http://videomega.tv/view.php?ref=119116048101112048076085081054054081085076048112101048116119&amp;width=700&amp;height=430" width="700"></iframe>'
p319
tp320
a(V\u000a\ud669\uc81c\ub97c \uc704\ud558\uc5ec(2014)(+19) \uc601\ud654 \ub2e4\uc2dc\ubcf4\uae30\u000a
p321
S'http://koreanz.com.au/wp-content/uploads/kboard_attached/219/201510/201510020559481121520-270x177.jpg'
p322
S'http://koreanz.com.au/wp-content/uploads/kboard_attached/219/201510/201510020559481121520.jpg'
p323
S'<iframe allowfullscreen="false" frameborder="0" height="420" marginheight="0" marginwidth="0" scrolling="no" src="http://www.dailymotion.com/embed/video/x24hwky?syndication=251560&amp;logo=0&amp;info=0&amp;autoPlay=0&amp;related=0" type="application/x-shockwave-flash" width="728"></iframe>'
p324
tp325
a(V\u000a\ud611\ub140, \uce7c\uc758 \uae30\uc5b5 (2015) \uc601\ud654 \ub2e4\uc2dc\ubcf4\uae30\u000a
p326
S'http://koreanz.com.au/wp-content/uploads/kboard_attached/219/201509/201509030528571370177-270x177.jpg'
p327
S'http://koreanz.com.au/wp-content/uploads/kboard_attached/219/201509/201509030528571370177.jpg'
p328
S'<iframe allowfullscreen="" frameborder="0" height="270" src="//www.dailymotion.com/embed/video/x3m47pp" width="480"></iframe>'
p329
tp330
a.